; Function Attrs: nounwind uwtable
define hidden range(i32 -1, 1) i32 @evmap_reinit_(ptr noundef %0) local_unnamed_addr #1 {
  %2 = getelementptr inbounds nuw i8, ptr %0, i64 808
  %3 = getelementptr inbounds nuw i8, ptr %0, i64 816
  %4 = load i32, ptr %3, align 8
  %5 = icmp sgt i32 %4, 0
  br i1 %5, label %.lr.ph.i, label %evmap_io_foreach_fd.exit.thread

.lr.ph.i:                                         ; preds = %1, %.thread.i
  %.014 = phi i32 [ %.1, %.thread.i ], [ 0, %1 ]
  %6 = phi i32 [ %36, %.thread.i ], [ %4, %1 ]
  %indvars.iv.i = phi i64 [ %indvars.iv.next.i, %.thread.i ], [ 0, %1 ]
  %7 = load ptr, ptr %2, align 8
  %8 = getelementptr inbounds nuw ptr, ptr %7, i64 %indvars.iv.i
  %9 = load ptr, ptr %8, align 8
  %.not.i = icmp eq ptr %9, null
  br i1 %.not.i, label %.thread.i, label %10

10:                                               ; preds = %.lr.ph.i
  %11 = trunc nuw nsw i64 %indvars.iv.i to i32
  %12 = load ptr, ptr %0, align 8
  %13 = getelementptr inbounds nuw i8, ptr %9, i64 16
  %14 = getelementptr inbounds nuw i8, ptr %9, i64 8
  %15 = load i16, ptr %14, align 8
  %.not.i11 = icmp eq i16 %15, 0
  %spec.select.i = select i1 %.not.i11, i16 0, i16 2
  %16 = getelementptr inbounds nuw i8, ptr %9, i64 10
  %17 = load i16, ptr %16, align 2
  %.not24.i = icmp eq i16 %17, 0
  %18 = or disjoint i16 %spec.select.i, 4
  %.1.i12 = select i1 %.not24.i, i16 %spec.select.i, i16 %18
  %19 = getelementptr inbounds nuw i8, ptr %9, i64 12
  %20 = load i16, ptr %19, align 4
  %.not25.i = icmp eq i16 %20, 0
  %21 = or disjoint i16 %.1.i12, 128
  %.2.i = select i1 %.not25.i, i16 %.1.i12, i16 %21
  %22 = getelementptr inbounds nuw i8, ptr %12, i64 56
  %23 = load i64, ptr %22, align 8
  %.not26.i = icmp eq i64 %23, 0
  br i1 %.not26.i, label %25, label %24

24:                                               ; preds = %10
  tail call void @llvm.memset.p0.i64(ptr nonnull align 1 %13, i8 0, i64 %23, i1 false)
  br label %25

25:                                               ; preds = %24, %10
  %.not27.i = icmp eq i16 %.2.i, 0
  br i1 %.not27.i, label %..thread_crit_edge.i, label %26

26:                                               ; preds = %25
  %27 = load ptr, ptr %9, align 8
  %.not28.i = icmp eq ptr %27, null
  br i1 %.not28.i, label %..thread_crit_edge.i, label %28

28:                                               ; preds = %26
  %29 = getelementptr inbounds nuw i8, ptr %27, i64 60
  %30 = load i16, ptr %29, align 4
  %31 = and i16 %30, 32
  %spec.select30.i = or disjoint i16 %31, %.2.i
  br label %..thread_crit_edge.i

..thread_crit_edge.i:                             ; preds = %28, %26, %25
  %.3.i = phi i16 [ %.2.i, %26 ], [ 0, %25 ], [ %spec.select30.i, %28 ]
  %32 = getelementptr inbounds nuw i8, ptr %12, i64 16
  %33 = load ptr, ptr %32, align 8
  %34 = tail call i32 %33(ptr noundef nonnull %0, i32 noundef %11, i16 noundef signext 0, i16 noundef signext %.3.i, ptr noundef nonnull %13) #7
  %35 = icmp eq i32 %34, -1
  %spec.select = select i1 %35, i32 -1, i32 %.014
  %.pre.i = load i32, ptr %3, align 8
  br label %.thread.i

.thread.i:                                        ; preds = %..thread_crit_edge.i, %.lr.ph.i
  %.1 = phi i32 [ %.014, %.lr.ph.i ], [ %spec.select, %..thread_crit_edge.i ]
  %36 = phi i32 [ %6, %.lr.ph.i ], [ %.pre.i, %..thread_crit_edge.i ]
  %indvars.iv.next.i = add nuw nsw i64 %indvars.iv.i, 1
  %37 = sext i32 %36 to i64
  %38 = icmp slt i64 %indvars.iv.next.i, %37
  br i1 %38, label %.lr.ph.i, label %evmap_io_foreach_fd.exit, !llvm.loop !10

evmap_io_foreach_fd.exit:                         ; preds = %.thread.i
  %39 = icmp slt i32 %.1, 0
  br i1 %39, label %62, label %evmap_io_foreach_fd.exit.thread

evmap_io_foreach_fd.exit.thread:                  ; preds = %1, %evmap_io_foreach_fd.exit
  %.216 = phi i32 [ %.1, %evmap_io_foreach_fd.exit ], [ 0, %1 ]
  %40 = getelementptr inbounds nuw i8, ptr %0, i64 824
  %41 = getelementptr inbounds nuw i8, ptr %0, i64 832
  %42 = load i32, ptr %41, align 8
  %43 = icmp sgt i32 %42, 0
  br i1 %43, label %.lr.ph.i3.preheader, label %evmap_signal_foreach_signal.exit

.lr.ph.i3.preheader:                              ; preds = %evmap_io_foreach_fd.exit.thread
  %44 = getelementptr inbounds nuw i8, ptr %0, i64 32
  br label %.lr.ph.i3

.lr.ph.i3:                                        ; preds = %.lr.ph.i3.preheader, %.thread.i9
  %.pre.i818 = phi i32 [ %.pre.i819, %.thread.i9 ], [ %42, %.lr.ph.i3.preheader ]
  %.3 = phi i32 [ %.4, %.thread.i9 ], [ %.216, %.lr.ph.i3.preheader ]
  %45 = phi i32 [ %59, %.thread.i9 ], [ %42, %.lr.ph.i3.preheader ]
  %indvars.iv.i4 = phi i64 [ %indvars.iv.next.i10, %.thread.i9 ], [ 0, %.lr.ph.i3.preheader ]
  %46 = load ptr, ptr %40, align 8
  %47 = getelementptr inbounds nuw ptr, ptr %46, i64 %indvars.iv.i4
  %48 = load ptr, ptr %47, align 8
  %.not.i5 = icmp eq ptr %48, null
  br i1 %.not.i5, label %.thread.i9, label %49

49:                                               ; preds = %.lr.ph.i3
  %50 = load ptr, ptr %48, align 8
  %51 = icmp eq ptr %50, null
  br i1 %51, label %.thread.i9, label %52

52:                                               ; preds = %49
  %53 = trunc nuw nsw i64 %indvars.iv.i4 to i32
  %54 = load ptr, ptr %44, align 8
  %55 = getelementptr inbounds nuw i8, ptr %54, i64 16
  %56 = load ptr, ptr %55, align 8
  %57 = tail call i32 %56(ptr noundef nonnull %0, i32 noundef %53, i16 noundef signext 1, i16 noundef signext 8, ptr noundef nonnull %50) #7
  %58 = icmp eq i32 %57, -1
  %spec.select17 = select i1 %58, i32 -1, i32 %.3
  %.pre.i8.pre = load i32, ptr %41, align 8
  br label %.thread.i9

.thread.i9:                                       ; preds = %49, %52, %.lr.ph.i3
  %.pre.i819 = phi i32 [ %.pre.i818, %.lr.ph.i3 ], [ %.pre.i818, %49 ], [ %.pre.i8.pre, %52 ]
  %.4 = phi i32 [ %.3, %.lr.ph.i3 ], [ %.3, %49 ], [ %spec.select17, %52 ]
  %59 = phi i32 [ %45, %.lr.ph.i3 ], [ %.pre.i818, %49 ], [ %.pre.i8.pre, %52 ]
  %indvars.iv.next.i10 = add nuw nsw i64 %indvars.iv.i4, 1
  %60 = sext i32 %59 to i64
  %61 = icmp slt i64 %indvars.iv.next.i10, %60
  br i1 %61, label %.lr.ph.i3, label %evmap_signal_foreach_signal.exit, !llvm.loop !11

evmap_signal_foreach_signal.exit:                 ; preds = %.thread.i9, %evmap_io_foreach_fd.exit.thread
  %.5 = phi i32 [ %.216, %evmap_io_foreach_fd.exit.thread ], [ %.4, %.thread.i9 ]
  %.5.lobit = ashr i32 %.5, 31
  br label %62

62:                                               ; preds = %evmap_signal_foreach_signal.exit, %evmap_io_foreach_fd.exit
  %.0 = phi i32 [ -1, %evmap_io_foreach_fd.exit ], [ %.5.lobit, %evmap_signal_foreach_signal.exit ]
  ret i32 %.0
}